target datalayout = "e-m:e-p270:32:32-p271:32:32-p272:64:64-i64:64-i128:128-f80:128-n8:16:32:64-S128"
target triple = "x86_64-pc-linux-gnu"

%struct.pm_location_t = type { ptr, ptr }
%struct.pm_string_t = type { ptr, i64, i32 }
%struct.pm_parser = type { i32, i32, i32, i32, i32, i32, i32, %struct.anon, ptr, ptr, %struct.pm_token_t, %struct.pm_token_t, ptr, ptr, %struct.pm_list_t, %struct.pm_list_t, %struct.pm_location_t, %struct.pm_list_t, %struct.pm_list_t, ptr, ptr, ptr, ptr, ptr, ptr, ptr, %struct.pm_string_t, %struct.pm_constant_pool_t, %struct.pm_newline_list_t, i16, %struct.pm_string_t, i32, ptr, ptr, i32, i8, i8, i8, i8, i8, i8, i8, i8, i8, i8, i8, i8, i8 }
%struct.anon = type { ptr, [4 x %struct.pm_lex_mode], i64 }
%struct.pm_lex_mode = type { i32, %union.anon, ptr }
%union.anon = type { %struct.anon.3 }
%struct.anon.3 = type { %struct.pm_heredoc_lex_mode_t, ptr, ptr, i8 }
%struct.pm_heredoc_lex_mode_t = type { ptr, i64, i32, i32 }
%struct.pm_token_t = type { i32, ptr, ptr }
%struct.pm_list_t = type { i64, ptr, ptr }
%struct.pm_constant_pool_t = type { ptr, ptr, i32, i32 }
%struct.pm_newline_list_t = type { ptr, i64, i64, ptr }
%struct.pm_constant_t = type { ptr, i64 }

; Function Attrs: nounwind sspstrong uwtable
define internal void @pm_dump_json_constant(ptr noundef %0, ptr noundef %1, i32 noundef %2) #0 {
  %4 = alloca ptr, align 8
  %5 = alloca ptr, align 8
  %6 = alloca i32, align 4
  %7 = alloca ptr, align 8
  store ptr %0, ptr %4, align 8, !tbaa !24
  store ptr %1, ptr %5, align 8, !tbaa !26
  store i32 %2, ptr %6, align 4, !tbaa !582
  call void @llvm.lifetime.start.p0(i64 8, ptr %7) #9
  %8 = load ptr, ptr %5, align 8, !tbaa !26
  %9 = getelementptr inbounds nuw %struct.pm_parser, ptr %8, i32 0, i32 27
  %10 = load i32, ptr %6, align 4, !tbaa !582
  %11 = call ptr @pm_constant_pool_id_to_constant(ptr noundef %9, i32 noundef %10)
  store ptr %11, ptr %7, align 8, !tbaa !24
  %12 = load ptr, ptr %4, align 8, !tbaa !24
  call void @pm_buffer_append_byte(ptr noundef %12, i8 noundef zeroext 34)
  %13 = load ptr, ptr %4, align 8, !tbaa !24
  %14 = load ptr, ptr %7, align 8, !tbaa !24
  %15 = getelementptr inbounds nuw %struct.pm_constant_t, ptr %14, i32 0, i32 0
  %16 = load ptr, ptr %15, align 8, !tbaa !846
  %17 = load ptr, ptr %7, align 8, !tbaa !24
  %18 = getelementptr inbounds nuw %struct.pm_constant_t, ptr %17, i32 0, i32 1
  %19 = load i64, ptr %18, align 8, !tbaa !848
  call void @pm_buffer_append_source(ptr noundef %13, ptr noundef %16, i64 noundef %19, i32 noundef 1)
  %20 = load ptr, ptr %4, align 8, !tbaa !24
  call void @pm_buffer_append_byte(ptr noundef %20, i8 noundef zeroext 34)
  call void @llvm.lifetime.end.p0(i64 8, ptr %7) #9
  ret void
}