; Function Attrs: nounwind sspstrong uwtable
define internal fastcc void @pm_dump_json_constant(ptr noundef %0, ptr noundef %1, i32 noundef %2) unnamed_addr #0 {
  %4 = getelementptr inbounds nuw i8, ptr %1, i64 576
  %5 = tail call ptr @pm_constant_pool_id_to_constant(ptr noundef nonnull %4, i32 noundef %2) #9
  tail call void @pm_buffer_append_byte(ptr noundef %0, i8 noundef zeroext 34) #9
  %6 = load ptr, ptr %5, align 8, !tbaa !366
  %7 = getelementptr inbounds nuw i8, ptr %5, i64 8
  %8 = load i64, ptr %7, align 8, !tbaa !368
  tail call void @pm_buffer_append_source(ptr noundef %0, ptr noundef %6, i64 noundef %8, i32 noundef 1) #9
  tail call void @pm_buffer_append_byte(ptr noundef %0, i8 noundef zeroext 34) #9
  ret void
}